target datalayout = "e-m:e-p270:32:32-p271:32:32-p272:64:64-i64:64-i128:128-f80:128-n8:16:32:64-S128"
target triple = "x86_64-pc-linux-gnu"

%struct.PageHeaderData = type { %struct.PageXLogRecPtr, i16, i16, i16, i16, i16, i16, i32, [0 x %struct.ItemIdData] }
%struct.PageXLogRecPtr = type { i32, i32 }
%struct.ItemIdData = type { i32 }

; Function Attrs: nounwind uwtable
define dso_local i64 @PageGetFreeSpaceForMultipleTuples(ptr noundef %0, i32 noundef %1) #0 {
  %3 = alloca i64, align 8
  %4 = alloca ptr, align 8
  %5 = alloca i32, align 4
  %6 = alloca ptr, align 8
  %7 = alloca i32, align 4
  %8 = alloca i32, align 4
  store ptr %0, ptr %4, align 8
  store i32 %1, ptr %5, align 4
  call void @llvm.lifetime.start.p0(i64 8, ptr %6) #8
  %9 = load ptr, ptr %4, align 8
  store ptr %9, ptr %6, align 8
  call void @llvm.lifetime.start.p0(i64 4, ptr %7) #8
  %10 = load ptr, ptr %6, align 8
  %11 = getelementptr inbounds nuw %struct.PageHeaderData, ptr %10, i32 0, i32 4
  %12 = load i16, ptr %11, align 2
  %13 = zext i16 %12 to i32
  %14 = load ptr, ptr %6, align 8
  %15 = getelementptr inbounds nuw %struct.PageHeaderData, ptr %14, i32 0, i32 3
  %16 = load i16, ptr %15, align 4
  %17 = zext i16 %16 to i32
  %18 = sub i32 %13, %17
  store i32 %18, ptr %7, align 4
  %19 = load i32, ptr %7, align 4
  %20 = load i32, ptr %5, align 4
  %21 = sext i32 %20 to i64
  %22 = mul i64 %21, 4
  %23 = trunc i64 %22 to i32
  %24 = icmp slt i32 %19, %23
  br i1 %24, label %25, label %26

25:                                               ; preds = %2
  store i64 0, ptr %3, align 8
  store i32 1, ptr %8, align 4
  br label %36

26:                                               ; preds = %2
  %27 = load i32, ptr %5, align 4
  %28 = sext i32 %27 to i64
  %29 = mul i64 %28, 4
  %30 = load i32, ptr %7, align 4
  %31 = sext i32 %30 to i64
  %32 = sub i64 %31, %29
  %33 = trunc i64 %32 to i32
  store i32 %33, ptr %7, align 4
  %34 = load i32, ptr %7, align 4
  %35 = sext i32 %34 to i64
  store i64 %35, ptr %3, align 8
  store i32 1, ptr %8, align 4
  br label %36

36:                                               ; preds = %26, %25
  call void @llvm.lifetime.end.p0(i64 4, ptr %7) #8
  call void @llvm.lifetime.end.p0(i64 8, ptr %6) #8
  %37 = load i64, ptr %3, align 8
  ret i64 %37
}