; Function Attrs: mustprogress nofree norecurse nosync nounwind willreturn memory(argmem: read) uwtable
define dso_local range(i64 -2147483648, 2147483648) i64 @PageGetFreeSpaceForMultipleTuples(ptr noundef readonly captures(none) %0, i32 noundef %1) local_unnamed_addr #8 {
  %3 = getelementptr inbounds nuw i8, ptr %0, i64 14
  %4 = load i16, ptr %3, align 2
  %5 = zext i16 %4 to i32
  %6 = getelementptr inbounds nuw i8, ptr %0, i64 12
  %7 = load i16, ptr %6, align 4
  %8 = zext i16 %7 to i32
  %9 = sub nsw i32 %5, %8
  %10 = shl i32 %1, 2
  %11 = icmp slt i32 %9, %10
  %12 = sub i32 %9, %10
  %narrow = select i1 %11, i32 0, i32 %12
  %.0 = sext i32 %narrow to i64
  ret i64 %.0
}